Certificate:
    Data:
        Version: 3 (0x2)
        Serial Number: 781 (0x30d)
        Signature Algorithm: sha512WithRSAEncryption
        Issuer: C=IT, O=IGI, CN=Test CA
        Validity
            Not Before: Apr 28 13:28:42 2016 GMT
            Not After : Apr 26 13:28:42 2026 GMT
        Subject: C=IT, O=IGI, CN=*.cnaf.test
        Subject Public Key Info:
            Public Key Algorithm: rsaEncryption
            RSA Public Key: (2048 bit)
                Modulus (2048 bit):
                    00:d0:08:3d:df:ac:a7:78:fb:4a:d6:8c:d5:4c:62:
                    33:c2:b8:d2:ac:83:2d:4c:1f:0e:e0:72:64:63:d3:
                    61:92:2d:04:0f:92:87:e3:a6:b7:d7:c6:a6:a6:89:
                    72:68:dc:a6:54:14:31:de:ec:14:6d:01:f7:b0:a2:
                    21:10:88:21:71:e3:6e:33:0f:7c:e4:0a:46:93:29:
                    b6:b6:7b:37:fe:c1:b3:b7:9d:7d:83:03:65:10:8f:
                    27:69:e5:ac:bd:71:14:8f:31:95:2e:bf:d7:89:a0:
                    db:67:2a:99:f7:77:40:c4:cf:dd:24:70:50:62:ed:
                    c4:eb:68:ad:80:8d:37:82:00:66:88:13:0b:ce:03:
                    bb:07:f6:6f:0c:b5:23:a0:af:e7:54:91:5c:5b:ad:
                    3b:23:ca:40:a1:18:f0:0f:b8:c7:1a:75:7a:9e:47:
                    37:b6:e4:f3:97:cc:5c:42:8c:b6:67:ec:e8:d2:75:
                    b1:15:27:a6:e5:cf:bc:0f:d5:ee:50:92:be:4d:62:
                    ec:92:c0:05:0f:33:ec:8e:dd:bc:4b:96:34:e5:e0:
                    1b:c1:ed:5b:fd:51:9c:56:da:8f:05:f7:70:db:59:
                    23:5f:3e:81:cd:a9:ec:60:a0:ad:8e:3a:23:ff:96:
                    6d:77:5b:32:3f:80:d9:dc:ed:08:cc:91:95:90:be:
                    22:65
                Exponent: 65537 (0x10001)
        X509v3 extensions:
            X509v3 Basic Constraints: critical
                CA:FALSE
            X509v3 Subject Key Identifier: 
                A5:55:E7:92:B0:11:2B:7B:1B:BB:26:89:D6:F7:62:2A:69:45:69:07
            X509v3 Key Usage: critical
                Digital Signature, Non Repudiation, Key Encipherment
            X509v3 Extended Key Usage: 
                TLS Web Server Authentication, TLS Web Client Authentication, Microsoft Server Gated Crypto, Netscape Server Gated Crypto, E-mail Protection
            X509v3 Authority Key Identifier: 
                keyid:91:77:36:7B:2E:B4:69:F3:27:EA:B7:F6:08:8B:4A:23:A2:11:49:C6

            X509v3 Subject Alternative Name: 
                DNS:*.cnaf.test
    Signature Algorithm: sha512WithRSAEncryption
        e0:24:e6:77:bb:65:77:ef:fe:1b:4b:2c:a9:bb:f1:bc:ca:b0:
        a3:a6:62:34:ea:f0:52:4a:4a:bb:55:b2:a8:c1:61:f2:8b:a2:
        b5:37:66:d8:03:32:f5:81:cd:ee:18:ae:dd:98:87:90:e8:d1:
        86:69:cd:a8:56:26:20:f8:00:a7:bd:14:73:c5:ee:01:ad:9c:
        bc:a9:0c:62:61:c3:d6:39:e2:5c:c3:7b:da:f3:51:60:9d:70:
        d8:0f:a7:b1:32:21:ac:f8:50:ef:b7:a6:30:6e:c2:4e:e7:19:
        b9:c8:24:17:e1:7d:2a:63:f1:8d:df:ce:be:dc:7f:33:98:fe:
        1c:00:b9:ac:7f:85:e7:24:f7:bd:c2:19:d4:3c:6e:ff:43:c2:
        d1:58:87:8e:3a:26:c4:d6:ad:dd:45:74:6d:72:89:d0:89:f1:
        b3:3f:b7:5c:58:0b:92:d6:f4:ea:c3:38:01:8f:c5:35:1c:55:
        0d:b5:50:10:c1:99:fa:fd:41:23:31:92:cd:c7:fe:7d:80:37:
        e1:ae:0c:46:eb:22:2e:6f:77:18:c6:46:a2:ae:ae:c3:55:49:
        ea:4b:1b:ba:96:73:12:b2:a0:49:1f:44:47:44:e1:81:9d:5e:
        26:36:11:7a:42:45:62:50:63:b9:ea:02:92:99:ec:d9:cc:3b:
        49:ac:9a:d4
-----BEGIN CERTIFICATE-----
MIIDlDCCAnygAwIBAgICAw0wDQYJKoZIhvcNAQENBQAwLTELMAkGA1UEBhMCSVQx
DDAKBgNVBAoMA0lHSTEQMA4GA1UEAwwHVGVzdCBDQTAeFw0xNjA0MjgxMzI4NDJa
Fw0yNjA0MjYxMzI4NDJaMDExCzAJBgNVBAYTAklUMQwwCgYDVQQKDANJR0kxFDAS
BgNVBAMMCyouY25hZi50ZXN0MIIBIjANBgkqhkiG9w0BAQEFAAOCAQ8AMIIBCgKC
AQEA0Ag936ynePtK1ozVTGIzwrjSrIMtTB8O4HJkY9Nhki0ED5KH46a318ampoly
aNymVBQx3uwUbQH3sKIhEIghceNuMw985ApGkym2tns3/sGzt519gwNlEI8naeWs
vXEUjzGVLr/XiaDbZyqZ93dAxM/dJHBQYu3E62itgI03ggBmiBMLzgO7B/ZvDLUj
oK/nVJFcW607I8pAoRjwD7jHGnV6nkc3tuTzl8xcQoy2Z+zo0nWxFSem5c+8D9Xu
UJK+TWLsksAFDzPsjt28S5Y05eAbwe1b/VGcVtqPBfdw21kjXz6BzansYKCtjjoj
/5Ztd1syP4DZ3O0IzJGVkL4iZQIDAQABo4G5MIG2MAwGA1UdEwEB/wQCMAAwHQYD
VR0OBBYEFKVV55KwESt7G7smidb3YippRWkHMA4GA1UdDwEB/wQEAwIF4DA+BgNV
HSUENzA1BggrBgEFBQcDAQYIKwYBBQUHAwIGCisGAQQBgjcKAwMGCWCGSAGG+EIE
AQYIKwYBBQUHAwQwHwYDVR0jBBgwFoAUkXc2ey60afMn6rf2CItKI6IRScYwFgYD
VR0RBA8wDYILKi5jbmFmLnRlc3QwDQYJKoZIhvcNAQENBQADggEBAOAk5ne7ZXfv
/htLLKm78bzKsKOmYjTq8FJKSrtVsqjBYfKLorU3ZtgDMvWBze4Yrt2Yh5Do0YZp
zahWJiD4AKe9FHPF7gGtnLypDGJhw9Y54lzDe9rzUWCdcNgPp7EyIaz4UO+3pjBu
wk7nGbnIJBfhfSpj8Y3fzr7cfzOY/hwAuax/heck973CGdQ8bv9DwtFYh446JsTW
rd1FdG1yidCJ8bM/t1xYC5LW9OrDOAGPxTUcVQ21UBDBmfr9QSMxks3H/n2AN+Gu
DEbrIi5vdxjGRqKursNVSepLG7qWcxKyoEkfREdE4YGdXiY2EXpCRWJQY7nqApKZ
7NnMO0msmtQ=
-----END CERTIFICATE-----
